; Function Attrs: mustprogress nofree norecurse nosync nounwind memory(argmem: readwrite) uwtable
define internal void @_ZN2cv12cpu_baselineL15cvtScaleAbs8s8uEPKhmS2_mPhmNS_5Size_IiEEPv(ptr noundef readonly captures(none) %0, i64 noundef %1, ptr readnone captures(none) %2, i64 %3, ptr noundef writeonly captures(none) %4, i64 noundef %5, i64 %6, ptr noundef readonly captures(none) %7) #1 {
  %9 = load double, ptr %7, align 8, !tbaa !7
  %10 = fptrunc double %9 to float
  %11 = getelementptr inbounds nuw i8, ptr %7, i64 8
  %12 = load double, ptr %11, align 8, !tbaa !7
  %13 = fptrunc double %12 to float
  %.sroa.2.0.extract.shift.i = lshr i64 %6, 32
  %.sroa.2.0.extract.trunc.i = trunc nuw i64 %.sroa.2.0.extract.shift.i to i32
  %14 = icmp sgt i32 %.sroa.2.0.extract.trunc.i, 0
  %.sroa.0.0.extract.trunc.i = trunc i64 %6 to i32
  %15 = icmp sgt i32 %.sroa.0.0.extract.trunc.i, 0
  %or.cond.i = and i1 %15, %14
  br i1 %or.cond.i, label %.preheader.us.preheader.i, label %_ZN2cv12cpu_baseline10cvtabs_32fIahEEvPKT_mPT0_mNS_5Size_IiEEff.exit

.preheader.us.preheader.i:                        ; preds = %8
  %wide.trip.count.i = and i64 %6, 2147483647
  br label %.preheader.us.i

.preheader.us.i:                                  ; preds = %._crit_edge.us.i, %.preheader.us.preheader.i
  %.01521.us.i = phi i32 [ %28, %._crit_edge.us.i ], [ 0, %.preheader.us.preheader.i ]
  %.01620.us.i = phi ptr [ %29, %._crit_edge.us.i ], [ %0, %.preheader.us.preheader.i ]
  %.01719.us.i = phi ptr [ %30, %._crit_edge.us.i ], [ %4, %.preheader.us.preheader.i ]
  br label %16

16:                                               ; preds = %16, %.preheader.us.i
  %indvars.iv.i = phi i64 [ 0, %.preheader.us.i ], [ %indvars.iv.next.i, %16 ]
  %17 = getelementptr inbounds nuw i8, ptr %.01620.us.i, i64 %indvars.iv.i
  %18 = load i8, ptr %17, align 1, !tbaa !9
  %19 = sitofp i8 %18 to float
  %20 = tail call float @llvm.fmuladd.f32(float %19, float %10, float %13)
  %21 = tail call noundef float @llvm.fabs.f32(float %20)
  %22 = insertelement <4 x float> poison, float %21, i64 0
  %23 = tail call noundef i32 @llvm.x86.sse.cvtss2si(<4 x float> %22)
  %24 = tail call i32 @llvm.smax.i32(i32 %23, i32 0)
  %25 = tail call i32 @llvm.umin.i32(i32 %24, i32 255)
  %26 = trunc nuw i32 %25 to i8
  %27 = getelementptr inbounds nuw i8, ptr %.01719.us.i, i64 %indvars.iv.i
  store i8 %26, ptr %27, align 1, !tbaa !9
  %indvars.iv.next.i = add nuw nsw i64 %indvars.iv.i, 1
  %exitcond.not.i = icmp eq i64 %indvars.iv.next.i, %wide.trip.count.i
  br i1 %exitcond.not.i, label %._crit_edge.us.i, label %16, !llvm.loop !13

._crit_edge.us.i:                                 ; preds = %16
  %28 = add nuw nsw i32 %.01521.us.i, 1
  %29 = getelementptr inbounds nuw i8, ptr %.01620.us.i, i64 %1
  %30 = getelementptr inbounds nuw i8, ptr %.01719.us.i, i64 %5
  %exitcond25.not.i = icmp eq i32 %28, %.sroa.2.0.extract.trunc.i
  br i1 %exitcond25.not.i, label %_ZN2cv12cpu_baseline10cvtabs_32fIahEEvPKT_mPT0_mNS_5Size_IiEEff.exit, label %.preheader.us.i, !llvm.loop !14

_ZN2cv12cpu_baseline10cvtabs_32fIahEEvPKT_mPT0_mNS_5Size_IiEEff.exit: ; preds = %._crit_edge.us.i, %8
  ret void
}